target datalayout = "e-m:e-p270:32:32-p271:32:32-p272:64:64-i64:64-i128:128-f80:128-n8:16:32:64-S128"
target triple = "x86_64-pc-linux-gnu"

%"class.Json::Value" = type { %"union.Json::Value::ValueHolder", %struct.anon, %"class.Json::Value::Comments", i64, i64 }
%"union.Json::Value::ValueHolder" = type { i64 }
%struct.anon = type { i16, [2 x i8] }
%"class.Json::Value::Comments" = type { %"class.std::unique_ptr" }
%"class.std::unique_ptr" = type { %"struct.std::__uniq_ptr_data" }
%"struct.std::__uniq_ptr_data" = type { %"class.std::__uniq_ptr_impl" }
%"class.std::__uniq_ptr_impl" = type { %"class.std::tuple" }
%"class.std::tuple" = type { %"struct.std::_Tuple_impl" }
%"struct.std::_Tuple_impl" = type { %"struct.std::_Head_base.1" }
%"struct.std::_Head_base.1" = type { ptr }
%"class.std::_Function_base" = type { %"union.std::_Any_data", ptr }
%"union.std::_Any_data" = type { %"union.std::_Nocopy_types" }
%"union.std::_Nocopy_types" = type { { i64, i64 } }
%"struct.dap::json::JsonCppSerializer" = type <{ %"class.dap::Serializer", ptr, i8, i8, [6 x i8] }>
%"class.dap::Serializer" = type { ptr }
%"class.std::function.18" = type { %"class.std::_Function_base", ptr }

@_ZN3dap4json17JsonCppSerializerC1EPN4Json5ValueE = dso_local unnamed_addr alias void (ptr, ptr), ptr @_ZN3dap4json17JsonCppSerializerC2EPN4Json5ValueE
@_ZN3dap4json17JsonCppSerializerD1Ev = dso_local unnamed_addr alias void (ptr), ptr @_ZN3dap4json17JsonCppSerializerD2Ev

; Function Attrs: mustprogress nounwind uwtable
define linkonce_odr dso_local noundef zeroext i1 @_ZNKSt14_Function_base8_M_emptyEv(ptr noundef nonnull align 8 dereferenceable(24) %0) #1 comdat align 2 {
  %2 = alloca ptr, align 8
  store ptr %0, ptr %2, align 8
  %3 = load ptr, ptr %2, align 8
  %4 = getelementptr inbounds %"class.std::_Function_base", ptr %3, i32 0, i32 1
  %5 = load ptr, ptr %4, align 8
  %6 = icmp ne ptr %5, null
  %7 = xor i1 %6, true
  ret i1 %7
}

; Function Attrs: mustprogress uwtable
define linkonce_odr dso_local noundef zeroext i1 @_ZNKSt8functionIFbPN3dap10SerializerEEEclES2_(ptr noundef nonnull align 8 dereferenceable(32) %0, ptr noundef %1) #0 comdat align 2 {
  %3 = alloca ptr, align 8
  %4 = alloca ptr, align 8
  store ptr %0, ptr %3, align 8
  store ptr %1, ptr %4, align 8
  %5 = load ptr, ptr %3, align 8
  %6 = call noundef zeroext i1 @_ZNKSt14_Function_base8_M_emptyEv(ptr noundef nonnull align 8 dereferenceable(24) %5)
  br i1 %6, label %7, label %8

7:                                                ; preds = %2
  call void @_ZSt25__throw_bad_function_callv() #17
  unreachable

8:                                                ; preds = %2
  %9 = getelementptr inbounds %"class.std::function.18", ptr %5, i32 0, i32 1
  %10 = load ptr, ptr %9, align 8
  %11 = getelementptr inbounds %"class.std::_Function_base", ptr %5, i32 0, i32 0
  %12 = call noundef zeroext i1 %10(ptr noundef nonnull align 8 dereferenceable(16) %11, ptr noundef nonnull align 8 dereferenceable(8) %4)
  ret i1 %12
}

; Function Attrs: mustprogress uwtable
define dso_local noundef zeroext i1 @_ZN3dap4json17JsonCppSerializer5arrayEmRKSt8functionIFbPNS_10SerializerEEE(ptr noundef nonnull align 8 dereferenceable(18) %0, i64 noundef %1, ptr noundef nonnull align 8 dereferenceable(32) %2) unnamed_addr #0 align 2 personality ptr @__gxx_personality_v0 {
  %4 = alloca i1, align 1
  %5 = alloca ptr, align 8
  %6 = alloca i64, align 8
  %7 = alloca ptr, align 8
  %8 = alloca %"class.Json::Value", align 8
  %9 = alloca i64, align 8
  %10 = alloca %"struct.dap::json::JsonCppSerializer", align 8
  %11 = alloca ptr, align 8
  %12 = alloca i32, align 4
  %13 = alloca i32, align 4
  store ptr %0, ptr %5, align 8
  store i64 %1, ptr %6, align 8
  store ptr %2, ptr %7, align 8
  %14 = load ptr, ptr %5, align 8
  call void @_ZN4Json5ValueC1ENS_9ValueTypeE(ptr noundef nonnull align 8 dereferenceable(40) %8, i32 noundef 6)
  %15 = getelementptr inbounds %"struct.dap::json::JsonCppSerializer", ptr %14, i32 0, i32 1
  %16 = load ptr, ptr %15, align 8
  %17 = call noundef nonnull align 8 dereferenceable(40) ptr @_ZN4Json5ValueaSEOS0_(ptr noundef nonnull align 8 dereferenceable(40) %16, ptr noundef nonnull align 8 dereferenceable(40) %8) #13
  call void @_ZN4Json5ValueD1Ev(ptr noundef nonnull align 8 dereferenceable(40) %8) #13
  store i64 0, ptr %9, align 8
  br label %18

18:                                               ; preds = %40, %3
  %19 = load i64, ptr %9, align 8
  %20 = load i64, ptr %6, align 8
  %21 = icmp ult i64 %19, %20
  br i1 %21, label %22, label %43

22:                                               ; preds = %18
  %23 = getelementptr inbounds %"struct.dap::json::JsonCppSerializer", ptr %14, i32 0, i32 1
  %24 = load ptr, ptr %23, align 8
  %25 = load i64, ptr %9, align 8
  %26 = trunc i64 %25 to i32
  %27 = call noundef nonnull align 8 dereferenceable(40) ptr @_ZN4Json5ValueixEj(ptr noundef nonnull align 8 dereferenceable(40) %24, i32 noundef %26)
  call void @_ZN3dap4json17JsonCppSerializerC1EPN4Json5ValueE(ptr noundef nonnull align 8 dereferenceable(18) %10, ptr noundef %27)
  %28 = load ptr, ptr %7, align 8
  %29 = invoke noundef zeroext i1 @_ZNKSt8functionIFbPN3dap10SerializerEEEclES2_(ptr noundef nonnull align 8 dereferenceable(32) %28, ptr noundef %10)
          to label %30 unwind label %32

30:                                               ; preds = %22
  br i1 %29, label %36, label %31

31:                                               ; preds = %30
  store i1 false, ptr %4, align 1
  store i32 1, ptr %13, align 4
  br label %37

32:                                               ; preds = %22
  %33 = landingpad { ptr, i32 }
          cleanup
  %34 = extractvalue { ptr, i32 } %33, 0
  store ptr %34, ptr %11, align 8
  %35 = extractvalue { ptr, i32 } %33, 1
  store i32 %35, ptr %12, align 4
  call void @_ZN3dap4json17JsonCppSerializerD1Ev(ptr noundef nonnull align 8 dereferenceable(18) %10) #13
  br label %46

36:                                               ; preds = %30
  store i32 0, ptr %13, align 4
  br label %37

37:                                               ; preds = %36, %31
  call void @_ZN3dap4json17JsonCppSerializerD1Ev(ptr noundef nonnull align 8 dereferenceable(18) %10) #13
  %38 = load i32, ptr %13, align 4
  switch i32 %38, label %51 [
    i32 0, label %39
    i32 1, label %44
  ]

39:                                               ; preds = %37
  br label %40

40:                                               ; preds = %39
  %41 = load i64, ptr %9, align 8
  %42 = add i64 %41, 1
  store i64 %42, ptr %9, align 8
  br label %18, !llvm.loop !7

43:                                               ; preds = %18
  store i1 true, ptr %4, align 1
  br label %44

44:                                               ; preds = %43, %37
  %45 = load i1, ptr %4, align 1
  ret i1 %45

46:                                               ; preds = %32
  %47 = load ptr, ptr %11, align 8
  %48 = load i32, ptr %12, align 4
  %49 = insertvalue { ptr, i32 } poison, ptr %47, 0
  %50 = insertvalue { ptr, i32 } %49, i32 %48, 1
  resume { ptr, i32 } %50

51:                                               ; preds = %37
  unreachable
}