; Function Attrs: mustprogress uwtable
define dso_local noundef zeroext i1 @_ZN3dap4json17JsonCppSerializer5arrayEmRKSt8functionIFbPNS_10SerializerEEE(ptr nocapture noundef nonnull readonly align 8 dereferenceable(18) %0, i64 noundef %1, ptr noundef nonnull align 8 dereferenceable(32) %2) unnamed_addr #0 align 2 personality ptr @__gxx_personality_v0 {
  %4 = alloca ptr, align 8
  %5 = alloca %"class.Json::Value", align 8
  %6 = alloca %"struct.dap::json::JsonCppSerializer", align 8
  call void @_ZN4Json5ValueC1ENS_9ValueTypeE(ptr noundef nonnull align 8 dereferenceable(40) %5, i32 noundef 6)
  %7 = getelementptr inbounds i8, ptr %0, i64 8
  %8 = load ptr, ptr %7, align 8
  %9 = call noundef nonnull align 8 dereferenceable(40) ptr @_ZN4Json5ValueaSEOS0_(ptr noundef nonnull align 8 dereferenceable(40) %8, ptr noundef nonnull align 8 dereferenceable(40) %5) #21
  call void @_ZN4Json5ValueD1Ev(ptr noundef nonnull align 8 dereferenceable(40) %5) #21
  %10 = icmp eq i64 %1, 0
  br i1 %10, label %._crit_edge, label %.lr.ph

.lr.ph:                                           ; preds = %3
  %11 = getelementptr inbounds i8, ptr %6, i64 8
  %12 = getelementptr inbounds i8, ptr %6, i64 16
  %13 = getelementptr inbounds i8, ptr %6, i64 17
  %14 = getelementptr inbounds i8, ptr %2, i64 16
  %15 = getelementptr inbounds i8, ptr %2, i64 24
  br label %19

16:                                               ; preds = %_ZN3dap4json17JsonCppSerializerD2Ev.exit
  %17 = add nuw i64 %.01014, 1
  %18 = icmp uge i64 %17, %1
  %exitcond = icmp eq i64 %17, %1
  br i1 %exitcond, label %._crit_edge, label %19, !llvm.loop !8

19:                                               ; preds = %.lr.ph, %16
  %20 = phi i1 [ false, %.lr.ph ], [ %18, %16 ]
  %.01014 = phi i64 [ 0, %.lr.ph ], [ %17, %16 ]
  %21 = load ptr, ptr %7, align 8
  %22 = trunc i64 %.01014 to i32
  %23 = call noundef nonnull align 8 dereferenceable(40) ptr @_ZN4Json5ValueixEj(ptr noundef nonnull align 8 dereferenceable(40) %21, i32 noundef %22)
  store ptr getelementptr inbounds ({ [13 x ptr] }, ptr @_ZTVN3dap4json17JsonCppSerializerE, i64 0, i32 0, i64 2), ptr %6, align 8
  store ptr %23, ptr %11, align 8
  store i8 0, ptr %12, align 8
  store i8 0, ptr %13, align 1
  call void @llvm.lifetime.start.p0(i64 8, ptr nonnull %4)
  store ptr %6, ptr %4, align 8
  %24 = load ptr, ptr %14, align 8
  %.not.i.i = icmp eq ptr %24, null
  br i1 %.not.i.i, label %25, label %26

25:                                               ; preds = %19
  invoke void @_ZSt25__throw_bad_function_callv() #23
          to label %.noexc unwind label %.loopexit.split-lp

.noexc:                                           ; preds = %25
  unreachable

26:                                               ; preds = %19
  %27 = load ptr, ptr %15, align 8
  %28 = invoke noundef zeroext i1 %27(ptr noundef nonnull align 8 dereferenceable(16) %2, ptr noundef nonnull align 8 dereferenceable(8) %4)
          to label %30 unwind label %.loopexit

.loopexit:                                        ; preds = %26
  %lpad.loopexit = landingpad { ptr, i32 }
          cleanup
  br label %29

.loopexit.split-lp:                               ; preds = %25
  %lpad.loopexit.split-lp = landingpad { ptr, i32 }
          cleanup
  br label %29

29:                                               ; preds = %.loopexit.split-lp, %.loopexit
  %lpad.phi = phi { ptr, i32 } [ %lpad.loopexit, %.loopexit ], [ %lpad.loopexit.split-lp, %.loopexit.split-lp ]
  call void @_ZN3dap4json17JsonCppSerializerD2Ev(ptr noundef nonnull align 8 dereferenceable(18) %6) #21
  resume { ptr, i32 } %lpad.phi

30:                                               ; preds = %26
  call void @llvm.lifetime.end.p0(i64 8, ptr nonnull %4)
  store ptr getelementptr inbounds ({ [13 x ptr] }, ptr @_ZTVN3dap4json17JsonCppSerializerE, i64 0, i32 0, i64 2), ptr %6, align 8
  %31 = load i8, ptr %12, align 8
  %32 = and i8 %31, 1
  %.not.i = icmp eq i8 %32, 0
  br i1 %.not.i, label %_ZN3dap4json17JsonCppSerializerD2Ev.exit, label %33

33:                                               ; preds = %30
  %34 = load ptr, ptr %11, align 8
  %35 = icmp eq ptr %34, null
  br i1 %35, label %_ZN3dap4json17JsonCppSerializerD2Ev.exit, label %36

36:                                               ; preds = %33
  call void @_ZN4Json5ValueD1Ev(ptr noundef nonnull align 8 dereferenceable(40) %34) #21
  call void @_ZdlPv(ptr noundef nonnull %34) #20
  br label %_ZN3dap4json17JsonCppSerializerD2Ev.exit

_ZN3dap4json17JsonCppSerializerD2Ev.exit:         ; preds = %30, %33, %36
  br i1 %28, label %16, label %._crit_edge

._crit_edge:                                      ; preds = %_ZN3dap4json17JsonCppSerializerD2Ev.exit, %16, %3
  %.lcssa = phi i1 [ true, %3 ], [ %18, %16 ], [ %20, %_ZN3dap4json17JsonCppSerializerD2Ev.exit ]
  ret i1 %.lcssa
}